(izhihu_oauth.oauth.token
ZhihuToken
p0
(dp1
S'_create_at'
p2
F1471664800.022649
sS'_lock_in'
p3
NsS'_token_type'
p4
Vbearer
p5
sS'_unlock_ticket'
p6
NsS'_expires_in'
p7
I2592000
sS'_uid'
p8
I739046031865417728
sS'_refresh_token'
p9
V004000ac5997690a461ef573
p10
sS'_access_token'
p11
VABAASnOeQQoMAAAAnl_fVwAQAEpznkEKDAAAAGACVU2eX99XOJAV3iJkIVzIlQkowAtb-CCcdO0FD1ehSXHre5FILw6gUO2xo2XMVA==
p12
sS'_expires_at'
p13
F1474256800.022649
sS'_cookie'
p14
(dp15
Vq_c0
p16
V2|1:0|10:1471664798|4:q_c0|76:QUJBQVNuT2VRUW9NQUFBQVlBSlZUWjVmMzFjNGtCWGVJbVFoWE1pVkNTakFDMXY0SUp4MDdRPT0=|537a040bbe4d7f96a7e7e9f34da031547253f12fbc420c688302d13ee59d2b43
p17
sVz_c0
p18
V2|1:0|10:1471664798|4:z_c0|76:QUJBQVNuT2VRUW9NQUFBQVlBSlZUWjVmMzFjNGtCWGVJbVFoWE1pVkNTakFDMXY0SUp4MDdRPT0=|80b030d2780d6b7991d5b5fac4b97122695d556f701f355d459449e58b65d1e1
p19
ssS'_user_id'
p20
V7ec8a46588d4dcc95a216f620acc3614
p21
sb.