(izhihu_oauth.oauth.token
ZhihuToken
p0
(dp1
S'_create_at'
p2
F1471419097.736172
sS'_lock_in'
p3
NsS'_token_type'
p4
Vbearer
p5
sS'_unlock_ticket'
p6
NsS'_expires_in'
p7
I2592000
sS'_uid'
p8
I739046031865417728
sS'_refresh_token'
p9
V006080d013ee650aaeb2eb9d
p10
sS'_access_token'
p11
VABAASnOeQQoMAAAA2Z_bVwAQAEpznkEKDAAAAGACVU3Zn9tXRGlhyrXn3uG8UfXy2lcndR3gZKQ89Pe0b_E2oTzocrFGt9QPSoIyzQ==
p12
sS'_expires_at'
p13
F1474011097.736172
sS'_cookie'
p14
(dp15
Vq_c0
p16
V2|1:0|10:1471419097|4:q_c0|76:QUJBQVNuT2VRUW9NQUFBQVlBSlZUZG1mMjFkRWFXSEt0ZWZlNGJ4UjlmTGFWeWQxSGVCa3BBPT0=|cad56a22792526d410742e913fbdfe50e18bd546505f1abb5ef780e84d81b812
p17
sVz_c0
p18
V2|1:0|10:1471419097|4:z_c0|76:QUJBQVNuT2VRUW9NQUFBQVlBSlZUZG1mMjFkRWFXSEt0ZWZlNGJ4UjlmTGFWeWQxSGVCa3BBPT0=|ccfd8ac4963b21cb74915998bcd6f9541091c967e683479c03b504f8afb3baff
p19
ssS'_user_id'
p20
V7ec8a46588d4dcc95a216f620acc3614
p21
sb.