(izhihu_oauth.oauth.token
ZhihuToken
p0
(dp1
S'_create_at'
p2
F1473246156.014558
sS'_lock_in'
p3
NsS'_token_type'
p4
Vbearer
p5
sS'_unlock_ticket'
p6
NsS'_expires_in'
p7
I2592000
sS'_uid'
p8
I739809595425329152
sS'_refresh_token'
p9
V0050006ac027810aa5e82988
p10
sS'_access_token'
p11
VAJDASOhURAoMAAAAy4D3VwCQwEjoVEQKDAAAAGACVU3LgPdXuuc2jH4-jnjwOI_WAjjEmw7Z8CVWfWuNAqUDJjNXqBWvZMNFUUNEzw==
p12
sS'_expires_at'
p13
F1475838156.014558
sS'_cookie'
p14
(dp15
Vq_c0
p16
V2|1:0|10:1473246155|4:q_c0|76:QUpEQVNPaFVSQW9NQUFBQVlBSlZUY3VBOTFlNjV6YU1majZPZVBBNGo5WUNPTVNiRHRud0pRPT0=|ecab0686ae4583e0e8e303d7638cb7ab6980c8790995abcc925486cf31d10ded
p17
sVz_c0
p18
V2|1:0|10:1473246155|4:z_c0|76:QUpEQVNPaFVSQW9NQUFBQVlBSlZUY3VBOTFlNjV6YU1majZPZVBBNGo5WUNPTVNiRHRud0pRPT0=|9643476a17d8f48f43cb97e18353c1e3913327a9d2e27eae9903e160154679a2
p19
ssS'_user_id'
p20
V5e508b692ce10e264cebabf2453a8273
p21
sb.